; Function Attrs: mustprogress uwtable
define hidden void @_ZN6google8protobuf8compiler3cpp15EscapeTrigraphsB5cxx11ESt17basic_string_viewIcSt11char_traitsIcEE(ptr noalias sret(%"class.std::__cxx11::basic_string") align 8 %agg.result, i64 %to_escape.coerce0, ptr %to_escape.coerce1) local_unnamed_addr #4 personality ptr @__gxx_personality_v0 {
entry:
  %ref.tmp = alloca [1 x %"struct.std::pair.37"], align 8
  store i64 1, ptr %ref.tmp, align 8
  %_M_str.i.i = getelementptr inbounds i8, ptr %ref.tmp, i64 8
  store ptr @.str.96, ptr %_M_str.i.i, align 8
  %second.i = getelementptr inbounds i8, ptr %ref.tmp, i64 16
  store i64 2, ptr %second.i, align 8
  %_M_str.i2.i = getelementptr inbounds i8, ptr %ref.tmp, i64 24
  store ptr @.str.97, ptr %_M_str.i2.i, align 8
  call void @_ZN4absl12lts_2023080213StrReplaceAllB5cxx11ESt17basic_string_viewIcSt11char_traitsIcEESt16initializer_listISt4pairIS4_S4_EE(ptr sret(%"class.std::__cxx11::basic_string") align 8 %agg.result, i64 %to_escape.coerce0, ptr %to_escape.coerce1, ptr nonnull %ref.tmp, i64 1)
  ret void
}